ccopy_reg
_reconstructor
p0
(cnn.utils
Vocabulary
p1
c__builtin__
object
p2
Ntp3
Rp4
(dp5
S'word_to_index'
p6
(dp7
S'\n'
p8
I26
sS' '
p9
I0
sS'#'
p10
I46
sS'$'
p11
I39
sS"'"
p12
I33
sS'&'
p13
I38
sS'*'
p14
I49
sS'-'
p15
I22
sS'/'
p16
I48
sS'.'
p17
I32
sS'1'
p18
I34
sS'0'
p19
I37
sS'3'
p20
I40
sS'2'
p21
I41
sS'5'
p22
I36
sS'4'
p23
I42
sS'7'
p24
I45
sS'6'
p25
I44
sS'9'
p26
I35
sS'8'
p27
I43
sS'<'
p28
I27
sS'>'
p29
I28
sS'N'
p30
I29
sS'\\'
p31
I47
sS'a'
p32
I1
sS'c'
p33
I12
sS'b'
p34
I4
sS'e'
p35
I2
sS'd'
p36
I21
sS'g'
p37
I19
sS'f'
p38
I17
sS'i'
p39
I10
sS'h'
p40
I20
sS'k'
p41
I6
sS'j'
p42
I30
sS'm'
p43
I18
sS'l'
p44
I9
sS'o'
p45
I7
sS'n'
p46
I5
sS'q'
p47
I23
sS'p'
p48
I24
sS's'
p49
I16
sS'r'
p50
I3
sS'u'
p51
I15
sS't'
p52
I8
sS'w'
p53
I13
sS'v'
p54
I31
sS'y'
p55
I14
sS'x'
p56
I25
sS'z'
p57
I11
ssS'index_to_word'
p58
(dp59
I0
g9
sI1
g32
sI2
g35
sI3
g50
sI4
g34
sI5
g46
sI6
g41
sI7
g45
sI8
g52
sI9
g44
sI10
g39
sI11
g57
sI12
g33
sI13
g53
sI14
g55
sI15
g51
sI16
g49
sI17
g38
sI18
g43
sI19
g37
sI20
g40
sI21
g36
sI22
g15
sI23
g47
sI24
g48
sI25
g56
sI26
g8
sI27
g28
sI28
g29
sI29
g30
sI30
g42
sI31
g54
sI32
g17
sI33
g12
sI34
g18
sI35
g26
sI36
g22
sI37
g19
sI38
g13
sI39
g11
sI40
g20
sI41
g21
sI42
g23
sI43
g27
sI44
g25
sI45
g24
sI46
g10
sI47
g31
sI48
g16
sI49
g14
ssS'idx'
p60
I50
sb.